Certificate:
    Data:
        Version: 3 (0x2)
        Serial Number:
            ac:f0:e1:ef:01:8c:54:aa
    Signature Algorithm: sha256WithRSAEncryption
        Issuer: C=PL, ST=Dolnoslaskie, O=Politechnika Wroclawska, OU=Wydzial Elektroniki, CN=www.pwr.wroc.pl/emailAddress=/emailAddress
        Validity
            Not Before: Jan 16 15:38:46 2020 GMT
            Not After : Jan 13 15:38:46 2030 GMT
        Subject: C=PL, ST=Dolnoslaskie, L=Wroclaw, O=Politechnika Wroclawska, CN=www.pwr.wroc.pl
        Subject Public Key Info:
            Public Key Algorithm: rsaEncryption
                Public-Key: (2048 bit)
                Modulus:
                    00:c1:f3:21:5d:aa:05:92:63:2f:94:81:9a:a4:e4:
                    04:07:81:f3:86:6c:00:d0:1d:85:b0:4c:38:96:33:
                    66:f4:aa:e9:d6:39:4e:6d:bb:aa:c7:94:9c:b9:3e:
                    ad:94:90:1b:d7:b0:4f:91:0a:63:f7:c3:b5:5f:60:
                    f7:0a:8a:b1:e3:43:21:6f:22:35:d2:e9:26:b9:42:
                    21:64:dd:84:11:02:46:47:73:d0:69:3d:37:07:44:
                    13:3c:e2:1d:dc:8f:ee:d5:8a:61:5e:11:ff:95:bb:
                    a1:b3:67:9d:8b:f0:e2:a2:fe:a8:c2:6e:c4:3e:c3:
                    02:36:60:14:9c:db:89:6b:0c:69:11:88:c6:87:06:
                    ab:d0:0c:d8:03:5d:5c:38:fd:68:b3:69:b0:a4:9e:
                    f7:02:76:f1:90:5a:5a:c1:50:31:f8:f2:01:3a:23:
                    bd:a3:55:79:68:63:47:38:69:25:98:25:3f:7e:1c:
                    71:23:e0:04:a2:a4:b2:14:88:10:03:09:84:f7:b3:
                    4a:52:fd:a8:2b:50:55:b5:c4:ee:60:0e:79:74:01:
                    d5:42:07:0a:5c:03:89:8d:3d:62:50:e9:52:86:f7:
                    8f:bf:b0:b7:53:3e:0b:fb:98:ac:16:a4:13:a9:47:
                    3c:dd:05:30:d2:f6:03:00:23:73:7d:02:5d:2a:5a:
                    9c:41
                Exponent: 65537 (0x10001)
        X509v3 extensions:
            X509v3 Basic Constraints: 
                CA:FALSE
            Netscape Comment: 
                OpenSSL Generated Certificate
            X509v3 Subject Key Identifier: 
                FD:A3:69:57:5B:03:34:4F:1D:37:92:52:E3:76:49:EA:E9:3F:29:CB
            X509v3 Authority Key Identifier: 
                keyid:DC:87:11:A6:74:BE:7A:18:CC:A2:66:71:FC:12:C6:9C:EB:A7:A6:06

    Signature Algorithm: sha256WithRSAEncryption
         cf:46:08:d4:15:52:97:8f:03:51:1b:87:86:31:80:42:a6:72:
         aa:d9:cd:a5:83:0c:e3:ea:e4:d1:39:9b:ac:5e:3d:d5:e4:7b:
         c5:77:85:e0:eb:ee:ee:d7:98:a0:b9:f7:0d:c8:a8:12:b5:ee:
         34:21:37:ca:35:4c:5a:58:25:07:a3:bb:8b:94:cf:df:17:c6:
         7a:30:d4:10:05:29:ec:df:3c:84:35:fc:12:06:ed:d4:5b:2d:
         b8:28:80:c8:b5:91:bf:f4:e7:be:5e:ae:c9:7d:02:d5:b9:fd:
         e1:08:c9:6c:c7:f3:57:72:32:0c:02:a7:36:c4:92:4d:43:5d:
         ac:1e:a1:96:74:46:8e:67:a4:82:d7:3b:3e:83:49:7e:cf:aa:
         bd:73:2a:b5:17:22:1a:b4:3a:04:90:e4:44:8e:4f:69:ae:76:
         6b:74:25:3b:f5:a5:ae:4c:63:d7:3c:9c:69:5d:bc:d6:97:a7:
         44:77:76:a7:66:4c:9f:41:e4:12:39:64:5d:d6:80:88:b9:e8:
         33:c8:0c:64:97:8d:b0:a8:8c:0c:fb:7e:d5:b9:e6:ca:fa:ea:
         31:5b:e0:80:60:7f:dc:4b:19:f1:56:3c:67:aa:fc:13:65:20:
         e2:b5:04:2d:04:cb:00:fa:53:57:cd:8a:a3:e0:a2:cf:22:f2:
         ed:b8:c9:16
-----BEGIN CERTIFICATE-----
MIIEDTCCAvWgAwIBAgIJAKzw4e8BjFSqMA0GCSqGSIb3DQEBCwUAMIGcMQswCQYD
VQQGEwJQTDEVMBMGA1UECAwMRG9sbm9zbGFza2llMSAwHgYDVQQKDBdQb2xpdGVj
aG5pa2EgV3JvY2xhd3NrYTEcMBoGA1UECwwTV3lkemlhbCBFbGVrdHJvbmlraTEY
MBYGA1UEAwwPd3d3LnB3ci53cm9jLnBsMRwwGgYJKoZIhvcNAQkBFg0vZW1haWxB
ZGRyZXNzMB4XDTIwMDExNjE1Mzg0NloXDTMwMDExMzE1Mzg0NlowcjELMAkGA1UE
BhMCUEwxFTATBgNVBAgMDERvbG5vc2xhc2tpZTEQMA4GA1UEBwwHV3JvY2xhdzEg
MB4GA1UECgwXUG9saXRlY2huaWthIFdyb2NsYXdza2ExGDAWBgNVBAMMD3d3dy5w
d3Iud3JvYy5wbDCCASIwDQYJKoZIhvcNAQEBBQADggEPADCCAQoCggEBAMHzIV2q
BZJjL5SBmqTkBAeB84ZsANAdhbBMOJYzZvSq6dY5Tm27qseUnLk+rZSQG9ewT5EK
Y/fDtV9g9wqKseNDIW8iNdLpJrlCIWTdhBECRkdz0Gk9NwdEEzziHdyP7tWKYV4R
/5W7obNnnYvw4qL+qMJuxD7DAjZgFJzbiWsMaRGIxocGq9AM2ANdXDj9aLNpsKSe
9wJ28ZBaWsFQMfjyATojvaNVeWhjRzhpJZglP34ccSPgBKKkshSIEAMJhPezSlL9
qCtQVbXE7mAOeXQB1UIHClwDiY09YlDpUob3j7+wt1M+C/uYrBakE6lHPN0FMNL2
AwAjc30CXSpanEECAwEAAaN7MHkwCQYDVR0TBAIwADAsBglghkgBhvhCAQ0EHxYd
T3BlblNTTCBHZW5lcmF0ZWQgQ2VydGlmaWNhdGUwHQYDVR0OBBYEFP2jaVdbAzRP
HTeSUuN2SerpPynLMB8GA1UdIwQYMBaAFNyHEaZ0vnoYzKJmcfwSxpzrp6YGMA0G
CSqGSIb3DQEBCwUAA4IBAQDPRgjUFVKXjwNRG4eGMYBCpnKq2c2lgwzj6uTROZus
Xj3V5HvFd4Xg6+7u15igufcNyKgSte40ITfKNUxaWCUHo7uLlM/fF8Z6MNQQBSns
3zyENfwSBu3UWy24KIDItZG/9Oe+Xq7JfQLVuf3hCMlsx/NXcjIMAqc2xJJNQ12s
HqGWdEaOZ6SC1zs+g0l+z6q9cyq1FyIatDoEkOREjk9prnZrdCU79aWuTGPXPJxp
XbzWl6dEd3anZkyfQeQSOWRd1oCIuegzyAxkl42wqIwM+37VuebK+uoxW+CAYH/c
SxnxVjxnqvwTZSDitQQtBMsA+lNXzYqj4KLPIvLtuMkW
-----END CERTIFICATE-----
