Certificate:
    Data:
        Version: 3 (0x2)
        Serial Number: 12461708585573569704 (0xacf0e1ef018c54a8)
    Signature Algorithm: sha256WithRSAEncryption
        Issuer: C=PL, ST=Dolnoslaskie, O=Politechnika Wroclawska, OU=Wydzial Elektroniki, CN=www.pwr.wroc.pl/emailAddress=/emailAddress
        Validity
            Not Before: Jan  9 14:59:38 2020 GMT
            Not After : Jan  8 14:59:38 2023 GMT
        Subject: C=PL, ST=Dolnoslaskie, O=Politechnika Wroclawska, OU=Wydzial Elektroniki, CN=www.pwr.wroc.pl/emailAddress=/emailAddress
        Subject Public Key Info:
            Public Key Algorithm: rsaEncryption
                Public-Key: (2048 bit)
                Modulus:
                    00:f7:79:c5:8e:39:ca:c3:4d:8f:15:66:09:11:ed:
                    19:4b:3d:d0:3d:89:53:ce:42:f7:46:be:c5:8c:d0:
                    85:4a:83:eb:25:67:7d:db:02:6a:24:9d:d8:eb:00:
                    fd:f7:ed:9b:d4:c9:eb:3a:b6:20:7d:6f:bb:8c:44:
                    e4:df:a2:d8:25:b6:f2:11:57:ee:5f:b0:00:a1:db:
                    9d:e6:37:09:d9:f2:dc:f2:01:df:8f:3e:a5:5b:f5:
                    90:fe:fc:1a:c3:3b:b8:68:72:06:06:26:11:70:f0:
                    c5:44:bb:a8:66:20:91:8a:5b:0b:9c:b8:4e:11:26:
                    19:89:06:35:82:3c:1b:14:cf:13:f4:1d:85:8d:ff:
                    23:84:ed:12:51:07:4b:cf:4b:51:bf:94:cd:0a:b9:
                    59:e4:cd:b1:84:ed:99:45:c8:df:db:e8:38:f1:d2:
                    b3:91:f9:bd:bc:95:ef:b6:36:65:3c:e4:fe:1d:af:
                    16:42:2e:03:99:5b:24:58:60:f1:5b:a2:45:ac:a4:
                    50:58:2a:61:20:04:af:4e:73:26:eb:fc:bf:ff:76:
                    0f:28:35:63:5e:c6:fc:72:6a:c4:bd:45:81:59:46:
                    28:8e:dc:a8:8c:4a:cf:f8:39:9c:8a:90:c9:a1:d3:
                    97:56:c5:c0:d4:51:a1:9b:b9:1f:06:30:17:3a:5a:
                    7d:af
                Exponent: 65537 (0x10001)
        X509v3 extensions:
            X509v3 Subject Key Identifier: 
                DC:87:11:A6:74:BE:7A:18:CC:A2:66:71:FC:12:C6:9C:EB:A7:A6:06
            X509v3 Authority Key Identifier: 
                keyid:DC:87:11:A6:74:BE:7A:18:CC:A2:66:71:FC:12:C6:9C:EB:A7:A6:06

            X509v3 Basic Constraints: 
                CA:TRUE
    Signature Algorithm: sha256WithRSAEncryption
         af:ad:e7:5c:47:b5:ab:67:0b:c0:1b:73:0c:05:97:cc:c9:99:
         08:f7:c3:b8:22:29:23:89:73:28:3c:66:68:ed:8a:86:6b:57:
         50:07:af:5a:dc:50:0c:3c:6e:1d:68:d3:df:44:ef:1e:2f:11:
         1c:98:77:05:64:92:4e:93:47:95:f7:21:ed:be:7e:58:e7:bb:
         59:55:cf:da:34:4e:9f:2a:c1:ee:a8:5e:b0:87:0d:ca:b5:23:
         f3:9d:c4:0b:07:64:58:e9:ff:1c:fa:d7:e6:f2:f2:f8:f9:f1:
         cd:7f:e8:aa:64:cb:34:5f:14:a0:00:69:f4:dd:3e:c0:88:72:
         0d:02:87:c8:e4:1b:a2:ee:3c:21:cb:b9:3c:37:ac:ed:56:23:
         b7:cf:ec:b5:71:34:ea:18:e1:75:bb:4b:fb:45:06:23:47:3a:
         ba:e8:6c:a9:64:66:3d:f5:10:ff:a5:9a:62:68:6a:6d:21:c1:
         f0:0d:19:80:58:14:20:ea:33:27:46:35:f7:2d:ba:11:8d:bd:
         69:08:49:3e:f8:a4:a0:50:06:56:4a:ce:a7:28:d3:a3:4c:2b:
         4f:eb:42:82:33:bc:ab:2c:5b:51:1d:e1:c6:73:70:6d:e8:b4:
         4e:e0:df:9c:6d:0e:f6:f8:11:37:9d:a8:2e:5b:6a:dd:17:60:
         08:97:f8:c9
-----BEGIN CERTIFICATE-----
MIIEDTCCAvWgAwIBAgIJAKzw4e8BjFSoMA0GCSqGSIb3DQEBCwUAMIGcMQswCQYD
VQQGEwJQTDEVMBMGA1UECAwMRG9sbm9zbGFza2llMSAwHgYDVQQKDBdQb2xpdGVj
aG5pa2EgV3JvY2xhd3NrYTEcMBoGA1UECwwTV3lkemlhbCBFbGVrdHJvbmlraTEY
MBYGA1UEAwwPd3d3LnB3ci53cm9jLnBsMRwwGgYJKoZIhvcNAQkBFg0vZW1haWxB
ZGRyZXNzMB4XDTIwMDEwOTE0NTkzOFoXDTIzMDEwODE0NTkzOFowgZwxCzAJBgNV
BAYTAlBMMRUwEwYDVQQIDAxEb2xub3NsYXNraWUxIDAeBgNVBAoMF1BvbGl0ZWNo
bmlrYSBXcm9jbGF3c2thMRwwGgYDVQQLDBNXeWR6aWFsIEVsZWt0cm9uaWtpMRgw
FgYDVQQDDA93d3cucHdyLndyb2MucGwxHDAaBgkqhkiG9w0BCQEWDS9lbWFpbEFk
ZHJlc3MwggEiMA0GCSqGSIb3DQEBAQUAA4IBDwAwggEKAoIBAQD3ecWOOcrDTY8V
ZgkR7RlLPdA9iVPOQvdGvsWM0IVKg+slZ33bAmokndjrAP337ZvUyes6tiB9b7uM
ROTfotgltvIRV+5fsACh253mNwnZ8tzyAd+PPqVb9ZD+/BrDO7hocgYGJhFw8MVE
u6hmIJGKWwucuE4RJhmJBjWCPBsUzxP0HYWN/yOE7RJRB0vPS1G/lM0KuVnkzbGE
7ZlFyN/b6Djx0rOR+b28le+2NmU85P4drxZCLgOZWyRYYPFbokWspFBYKmEgBK9O
cybr/L//dg8oNWNexvxyasS9RYFZRiiO3KiMSs/4OZyKkMmh05dWxcDUUaGbuR8G
MBc6Wn2vAgMBAAGjUDBOMB0GA1UdDgQWBBTchxGmdL56GMyiZnH8Esac66emBjAf
BgNVHSMEGDAWgBTchxGmdL56GMyiZnH8Esac66emBjAMBgNVHRMEBTADAQH/MA0G
CSqGSIb3DQEBCwUAA4IBAQCvredcR7WrZwvAG3MMBZfMyZkI98O4IikjiXMoPGZo
7YqGa1dQB69a3FAMPG4daNPfRO8eLxEcmHcFZJJOk0eV9yHtvn5Y57tZVc/aNE6f
KsHuqF6whw3KtSPzncQLB2RY6f8c+tfm8vL4+fHNf+iqZMs0XxSgAGn03T7AiHIN
AofI5Bui7jwhy7k8N6ztViO3z+y1cTTqGOF1u0v7RQYjRzq66GypZGY99RD/pZpi
aGptIcHwDRmAWBQg6jMnRjX3LboRjb1pCEk++KSgUAZWSs6nKNOjTCtP60KCM7yr
LFtRHeHGc3Bt6LRO4N+cbQ72+BE3naguW2rdF2AIl/jJ
-----END CERTIFICATE-----
