Certificate:
    Data:
        Version: 3 (0x2)
        Serial Number: 12461708585573569705 (0xacf0e1ef018c54a9)
    Signature Algorithm: sha256WithRSAEncryption
        Issuer: C=PL, ST=Dolnoslaskie, O=Politechnika Wroclawska, OU=Wydzial Elektroniki, CN=www.pwr.wroc.pl/emailAddress=/emailAddress
        Validity
            Not Before: Jan  9 15:11:20 2020 GMT
            Not After : Jan  8 15:11:20 2021 GMT
        Subject: C=PL, ST=Dolnoslaskie, L=Wroclaw, O=Politechnika Wroclawska, OU=Wydzial Elektroniki, CN=www.pwr.wroc.pl/emailAddress=Jakis.Adres@pwr.wroc.pl
        Subject Public Key Info:
            Public Key Algorithm: rsaEncryption
                Public-Key: (2048 bit)
                Modulus:
                    00:d9:bb:84:4a:85:e2:e9:1e:a0:80:56:9f:8e:e8:
                    86:3f:58:ec:64:5d:68:97:4f:78:d6:63:bd:89:8d:
                    26:bc:b2:e2:1c:19:57:81:34:18:ac:e3:0c:9b:57:
                    df:df:7e:b8:dc:67:22:66:ef:08:5b:f1:0e:bb:aa:
                    3c:d8:ef:42:6a:0a:d3:bf:16:7b:b8:be:73:df:7a:
                    ff:d1:0f:63:f4:b7:0a:e1:74:ab:61:ff:a5:63:85:
                    4e:25:1a:3a:07:b9:c7:20:bd:56:cd:cc:07:bf:a4:
                    c8:91:e3:e3:48:80:7a:c0:29:bf:fc:23:4a:aa:c5:
                    0f:23:32:20:45:02:e5:b3:6f:20:55:df:52:26:b3:
                    d5:6e:55:ea:7d:4f:8e:7a:d6:05:25:f1:cb:b1:be:
                    b0:1e:d1:14:55:13:53:3a:a0:55:67:b8:c1:2e:76:
                    4d:c6:8d:e2:42:46:99:61:e9:cd:f6:53:8d:b3:fb:
                    cf:d9:51:1b:9f:d1:a6:7d:4b:ea:34:f4:7d:25:05:
                    33:ee:7f:0a:95:28:10:ab:6b:61:df:d0:09:5d:4b:
                    27:22:82:37:66:1f:3e:b4:68:f3:18:bc:c5:13:df:
                    1d:1b:f2:61:aa:a4:1b:c6:be:83:63:f9:36:e6:a0:
                    27:9f:54:1f:69:64:25:38:ad:73:fd:4d:5e:e4:3a:
                    aa:95
                Exponent: 65537 (0x10001)
        X509v3 extensions:
            X509v3 Basic Constraints: 
                CA:FALSE
            Netscape Comment: 
                OpenSSL Generated Certificate
            X509v3 Subject Key Identifier: 
                51:BC:7D:CC:48:D8:16:9C:6A:F2:D0:4C:D0:68:FD:66:2D:B5:B2:9B
            X509v3 Authority Key Identifier: 
                keyid:DC:87:11:A6:74:BE:7A:18:CC:A2:66:71:FC:12:C6:9C:EB:A7:A6:06

    Signature Algorithm: sha256WithRSAEncryption
         c6:9a:88:39:c3:5b:8c:78:c1:e3:c2:05:d2:cc:3b:c9:4b:ec:
         03:50:4d:e7:10:77:40:de:70:09:fb:59:5b:40:bf:08:57:12:
         ed:7d:40:1a:15:df:81:ed:49:aa:a7:53:9e:1b:8e:e2:80:34:
         a6:c3:59:e5:c0:d3:21:dd:8f:99:f6:f6:d6:0c:c9:31:00:8a:
         e8:53:34:fc:bd:08:2e:8d:f3:77:7c:00:0d:55:5b:6e:cf:51:
         fb:07:f1:0b:3b:a3:fa:5f:9b:87:6a:53:d1:c4:f0:1c:2d:7a:
         d9:e4:e0:56:fa:84:f9:7c:56:5f:06:e2:c2:19:09:31:3b:0e:
         51:4e:1c:92:d9:a5:f6:98:9b:9a:8a:a9:c9:7c:b4:91:bf:64:
         2b:0d:fd:8f:48:d8:a1:94:91:a8:3e:97:a5:13:fb:1d:62:fc:
         5a:e8:ef:98:77:84:f8:e1:be:b2:8f:63:b7:f8:7b:0f:9d:a6:
         5b:d8:de:10:5d:4d:e3:90:2e:4f:a2:47:6e:b2:56:ae:0d:f6:
         6a:63:08:c2:5a:1b:79:2e:9c:94:41:3f:2a:fa:65:e7:b5:9b:
         d0:74:06:60:a7:b7:f6:a2:11:27:d0:9b:55:55:42:0a:f5:16:
         1f:98:54:10:72:1c:24:02:bb:89:b1:8f:a0:2f:e1:f5:38:84:
         67:3c:fd:f6
-----BEGIN CERTIFICATE-----
MIIEVDCCAzygAwIBAgIJAKzw4e8BjFSpMA0GCSqGSIb3DQEBCwUAMIGcMQswCQYD
VQQGEwJQTDEVMBMGA1UECAwMRG9sbm9zbGFza2llMSAwHgYDVQQKDBdQb2xpdGVj
aG5pa2EgV3JvY2xhd3NrYTEcMBoGA1UECwwTV3lkemlhbCBFbGVrdHJvbmlraTEY
MBYGA1UEAwwPd3d3LnB3ci53cm9jLnBsMRwwGgYJKoZIhvcNAQkBFg0vZW1haWxB
ZGRyZXNzMB4XDTIwMDEwOTE1MTEyMFoXDTIxMDEwODE1MTEyMFowgbgxCzAJBgNV
BAYTAlBMMRUwEwYDVQQIDAxEb2xub3NsYXNraWUxEDAOBgNVBAcMB1dyb2NsYXcx
IDAeBgNVBAoMF1BvbGl0ZWNobmlrYSBXcm9jbGF3c2thMRwwGgYDVQQLDBNXeWR6
aWFsIEVsZWt0cm9uaWtpMRgwFgYDVQQDDA93d3cucHdyLndyb2MucGwxJjAkBgkq
hkiG9w0BCQEWF0pha2lzLkFkcmVzQHB3ci53cm9jLnBsMIIBIjANBgkqhkiG9w0B
AQEFAAOCAQ8AMIIBCgKCAQEA2buESoXi6R6ggFafjuiGP1jsZF1ol0941mO9iY0m
vLLiHBlXgTQYrOMMm1ff33643GciZu8IW/EOu6o82O9CagrTvxZ7uL5z33r/0Q9j
9LcK4XSrYf+lY4VOJRo6B7nHIL1WzcwHv6TIkePjSIB6wCm//CNKqsUPIzIgRQLl
s28gVd9SJrPVblXqfU+OetYFJfHLsb6wHtEUVRNTOqBVZ7jBLnZNxo3iQkaZYenN
9lONs/vP2VEbn9GmfUvqNPR9JQUz7n8KlSgQq2th39AJXUsnIoI3Zh8+tGjzGLzF
E98dG/JhqqQbxr6DY/k25qAnn1QfaWQlOK1z/U1e5DqqlQIDAQABo3sweTAJBgNV
HRMEAjAAMCwGCWCGSAGG+EIBDQQfFh1PcGVuU1NMIEdlbmVyYXRlZCBDZXJ0aWZp
Y2F0ZTAdBgNVHQ4EFgQUUbx9zEjYFpxq8tBM0Gj9Zi21spswHwYDVR0jBBgwFoAU
3IcRpnS+ehjMomZx/BLGnOunpgYwDQYJKoZIhvcNAQELBQADggEBAMaaiDnDW4x4
wePCBdLMO8lL7ANQTecQd0DecAn7WVtAvwhXEu19QBoV34HtSaqnU54bjuKANKbD
WeXA0yHdj5n29tYMyTEAiuhTNPy9CC6N83d8AA1VW27PUfsH8Qs7o/pfm4dqU9HE
8Bwtetnk4Fb6hPl8Vl8G4sIZCTE7DlFOHJLZpfaYm5qKqcl8tJG/ZCsN/Y9I2KGU
kag+l6UT+x1i/Fro75h3hPjhvrKPY7f4ew+dplvY3hBdTeOQLk+iR26yVq4N9mpj
CMJaG3kunJRBPyr6Zee1m9B0BmCnt/aiESfQm1VVQgr1Fh+YVBByHCQCu4mxj6Av
4fU4hGc8/fY=
-----END CERTIFICATE-----
